target datalayout = "e-m:e-p270:32:32-p271:32:32-p272:64:64-i64:64-i128:128-f80:128-n8:16:32:64-S128"
target triple = "x86_64-pc-linux-gnu"

%"class.opt::maxsmt_solver_base" = type { %"class.opt::maxsmt_solver", ptr, ptr, i32, ptr, %class.ref_vector, %class.ref_vector, %class.rational, %class.rational, %class.ref, %class.svector, %class.params_ref }
%"class.opt::maxsmt_solver" = type { ptr }
%class.ref_vector = type { %class.ref_vector_core }
%class.ref_vector_core = type { %class.ref_manager_wrapper, %class.ptr_vector }
%class.ref_manager_wrapper = type { ptr }
%class.ptr_vector = type { %class.vector }
%class.vector = type { ptr }
%class.rational = type { %class.mpq }
%class.mpq = type { %class.mpz, %class.mpz }
%class.mpz = type { i32, i8, ptr }
%class.ref = type { ptr }
%class.svector = type { %class.vector.0 }
%class.vector.0 = type { ptr }
%class.params_ref = type { ptr }

; Function Attrs: mustprogress uwtable
define hidden noundef nonnull align 8 dereferenceable(96) ptr @_ZN3opt18maxsmt_solver_base1sEv(ptr noundef nonnull align 8 dereferenceable(160) %0) #6 align 2 {
  %2 = alloca ptr, align 8
  store ptr %0, ptr %2, align 8, !tbaa !28
  %3 = load ptr, ptr %2, align 8
  %4 = getelementptr inbounds nuw %"class.opt::maxsmt_solver_base", ptr %3, i32 0, i32 2
  %5 = load ptr, ptr %4, align 8, !tbaa !85
  %6 = load ptr, ptr %5, align 8, !tbaa !34
  %7 = getelementptr inbounds ptr, ptr %6, i64 4
  %8 = load ptr, ptr %7, align 8
  %9 = call noundef nonnull align 8 dereferenceable(96) ptr %8(ptr noundef nonnull align 8 dereferenceable(8) %5)
  ret ptr %9
}