; Function Attrs: mustprogress uwtable
define hidden noundef nonnull align 8 dereferenceable(96) ptr @_ZN3opt18maxsmt_solver_base1sEv(ptr noundef nonnull readonly align 8 captures(none) dereferenceable(160) %0) local_unnamed_addr #4 align 2 {
  %2 = getelementptr inbounds nuw i8, ptr %0, i64 16
  %3 = load ptr, ptr %2, align 8, !tbaa !66
  %4 = load ptr, ptr %3, align 8, !tbaa !3
  %5 = getelementptr inbounds nuw i8, ptr %4, i64 32
  %6 = load ptr, ptr %5, align 8
  %7 = tail call noundef nonnull align 8 dereferenceable(96) ptr %6(ptr noundef nonnull align 8 dereferenceable(8) %3)
  ret ptr %7
}